; Function Attrs: mustprogress nofree norecurse nosync nounwind willreturn memory(read, inaccessiblemem: none) uwtable
define internal range(i32 0, 256) i32 @tt_cmap0_char_index(ptr nocapture noundef readonly %0, i32 noundef %1) #2 {
  %3 = icmp ult i32 %1, 256
  br i1 %3, label %4, label %12

4:                                                ; preds = %2
  %5 = getelementptr inbounds i8, ptr %0, i64 24
  %6 = load ptr, ptr %5, align 8
  %7 = zext nneg i32 %1 to i64
  %8 = getelementptr inbounds i8, ptr %6, i64 %7
  %9 = getelementptr inbounds i8, ptr %8, i64 6
  %10 = load i8, ptr %9, align 1
  %11 = zext i8 %10 to i32
  br label %12

12:                                               ; preds = %2, %4
  %13 = phi i32 [ %11, %4 ], [ 0, %2 ]
  ret i32 %13
}